target datalayout = "e-m:e-p270:32:32-p271:32:32-p272:64:64-i64:64-i128:128-f80:128-n8:16:32:64-S128"
target triple = "x86_64-pc-linux-gnu"

%struct.Type_ = type { i32, ptr, ptr, ptr, %union.anon, ptr, ptr, %union.anon.1 }
%union.anon = type { ptr }
%union.anon.1 = type { %struct.TypeFunction }
%struct.TypeFunction = type { ptr, ptr, ptr }
%struct.GlobalContext = type { %struct.HTable, ptr, ptr, ptr, ptr, ptr, ptr, ptr, ptr, i8, i32, i32, i32, ptr, ptr, %struct.HTable, %struct.HTable, %struct.Module_, %struct.DeclTable, %struct.DeclTable, %struct.Path_, ptr, ptr, ptr, ptr, ptr, ptr, ptr, [65536 x ptr], ptr, ptr, ptr }
%struct.HTable = type { i32, ptr }
%struct.Module_ = type { ptr, ptr, ptr, i16, i32, ptr, %struct.HTable, ptr, ptr, ptr, ptr, ptr, ptr, ptr, ptr, ptr }
%struct.DeclTable = type { i32, i32, i32, ptr }
%struct.Path_ = type { %union.SourceSpan, ptr, i32 }
%union.SourceSpan = type { i64 }
%struct.Decl_ = type { ptr, ptr, %union.SourceSpan, i64, %union.anon.3, i32, %union.anon.4, i64, ptr, ptr, ptr, %union.anon.5 }
%union.anon.3 = type { ptr }
%union.anon.4 = type { i16 }
%union.anon.5 = type { %struct.FuncDecl }
%struct.FuncDecl = type { i32, [4 x i8], %struct.Signature_, i32, i32, %union.anon.12 }
%struct.Signature_ = type <{ %struct.CalleeAttributes, i16, i8, i32, i32, [4 x i8], ptr }>
%struct.CalleeAttributes = type { i8 }
%union.anon.12 = type { %struct.anon.13 }
%struct.anon.13 = type { i16, %union.anon.14 }
%union.anon.14 = type { ptr }
%struct.TypeArray = type { ptr, i32 }
%struct.FunctionPrototype_ = type { i16, i16, ptr, ptr, ptr, ptr, ptr, ptr, ptr, ptr, ptr, ptr, ptr }

@.str = private unnamed_addr constant [36 x i8] c"FATAL ERROR %s -> in %s @ in %s:%d \00", align 1
@.str.2 = private unnamed_addr constant [106 x i8] c"generated/home/dtcxzyw/WorkSpace/Projects/compilers/llvm-opt-benchmark/bench/c3c/c3c/src/compiler/types.c\00", align 1
@.str.17 = private unnamed_addr constant [22 x i8] c"Should be unreachable\00", align 1
@__func__.type_mangle_introspect_name_to_buffer = private unnamed_addr constant [38 x i8] c"type_mangle_introspect_name_to_buffer\00", align 1
@.str.18 = private unnamed_addr constant [5 x i8] c"any$\00", align 1
@.str.19 = private unnamed_addr constant [3 x i8] c"p$\00", align 1
@.str.20 = private unnamed_addr constant [4 x i8] c"sa$\00", align 1
@.str.21 = private unnamed_addr constant [4 x i8] c"a0$\00", align 1
@.str.22 = private unnamed_addr constant [3 x i8] c"f$\00", align 1
@.str.23 = private unnamed_addr constant [3 x i8] c"$$\00", align 1
@global_context = external global %struct.GlobalContext, align 8

; Function Attrs: nounwind uwtable
define internal zeroext i1 @char_is_alphanum_(i8 noundef signext %0) #0 {
  %2 = alloca i1, align 1
  %3 = alloca i8, align 1
  store i8 %0, ptr %3, align 1
  %4 = load i8, ptr %3, align 1
  %5 = sext i8 %4 to i32
  switch i32 %5, label %7 [
    i32 97, label %6
    i32 98, label %6
    i32 99, label %6
    i32 100, label %6
    i32 101, label %6
    i32 102, label %6
    i32 103, label %6
    i32 104, label %6
    i32 105, label %6
    i32 106, label %6
    i32 107, label %6
    i32 108, label %6
    i32 109, label %6
    i32 110, label %6
    i32 111, label %6
    i32 112, label %6
    i32 113, label %6
    i32 114, label %6
    i32 115, label %6
    i32 116, label %6
    i32 117, label %6
    i32 118, label %6
    i32 119, label %6
    i32 120, label %6
    i32 121, label %6
    i32 122, label %6
    i32 65, label %6
    i32 66, label %6
    i32 67, label %6
    i32 68, label %6
    i32 69, label %6
    i32 70, label %6
    i32 71, label %6
    i32 72, label %6
    i32 73, label %6
    i32 74, label %6
    i32 75, label %6
    i32 76, label %6
    i32 77, label %6
    i32 78, label %6
    i32 79, label %6
    i32 80, label %6
    i32 81, label %6
    i32 82, label %6
    i32 83, label %6
    i32 84, label %6
    i32 85, label %6
    i32 86, label %6
    i32 87, label %6
    i32 88, label %6
    i32 89, label %6
    i32 90, label %6
    i32 48, label %6
    i32 49, label %6
    i32 50, label %6
    i32 51, label %6
    i32 52, label %6
    i32 53, label %6
    i32 54, label %6
    i32 55, label %6
    i32 56, label %6
    i32 57, label %6
    i32 95, label %6
  ]

6:                                                ; preds = %1, %1, %1, %1, %1, %1, %1, %1, %1, %1, %1, %1, %1, %1, %1, %1, %1, %1, %1, %1, %1, %1, %1, %1, %1, %1, %1, %1, %1, %1, %1, %1, %1, %1, %1, %1, %1, %1, %1, %1, %1, %1, %1, %1, %1, %1, %1, %1, %1, %1, %1, %1, %1, %1, %1, %1, %1, %1, %1, %1, %1, %1, %1
  store i1 true, ptr %2, align 1
  br label %8

7:                                                ; preds = %1
  store i1 false, ptr %2, align 1
  br label %8

8:                                                ; preds = %7, %6
  %9 = load i1, ptr %2, align 1
  ret i1 %9
}

; Function Attrs: nounwind uwtable
define dso_local void @type_mangle_introspect_name_to_buffer(ptr noundef %0) #0 {
  %2 = alloca ptr, align 8
  %3 = alloca ptr, align 8
  %4 = alloca ptr, align 8
  %5 = alloca i64, align 8
  %6 = alloca i64, align 8
  %7 = alloca i8, align 1
  store ptr %0, ptr %3, align 8
  %8 = load ptr, ptr %3, align 8
  %9 = getelementptr inbounds %struct.Type_, ptr %8, i32 0, i32 0
  %10 = load i32, ptr %9, align 8
  switch i32 %10, label %148 [
    i32 42, label %11
    i32 36, label %11
    i32 38, label %11
    i32 39, label %11
    i32 0, label %11
    i32 43, label %11
    i32 41, label %11
    i32 18, label %11
    i32 19, label %14
    i32 1, label %15
    i32 2, label %15
    i32 3, label %15
    i32 4, label %15
    i32 5, label %15
    i32 6, label %15
    i32 7, label %15
    i32 8, label %15
    i32 9, label %15
    i32 10, label %15
    i32 11, label %15
    i32 12, label %15
    i32 14, label %15
    i32 13, label %15
    i32 15, label %15
    i32 16, label %15
    i32 17, label %15
    i32 21, label %15
    i32 22, label %15
    i32 20, label %19
    i32 23, label %19
    i32 34, label %23
    i32 35, label %28
    i32 40, label %33
    i32 37, label %37
    i32 33, label %47
    i32 25, label %57
    i32 24, label %138
    i32 26, label %138
    i32 27, label %138
    i32 29, label %138
    i32 30, label %138
    i32 32, label %138
    i32 28, label %138
    i32 31, label %144
  ]

11:                                               ; preds = %1, %1, %1, %1, %1, %1, %1, %1
  br label %12

12:                                               ; preds = %11
  call void (ptr, ...) @error_exit(ptr noundef @.str, ptr noundef @.str.17, ptr noundef @__func__.type_mangle_introspect_name_to_buffer, ptr noundef @.str.2, i32 noundef 543) #7
  unreachable

13:                                               ; No predecessors!
  br label %14

14:                                               ; preds = %13, %1
  call void @scratch_buffer_append(ptr noundef @.str.18)
  br label %150

15:                                               ; preds = %1, %1, %1, %1, %1, %1, %1, %1, %1, %1, %1, %1, %1, %1, %1, %1, %1, %1, %1
  %16 = load ptr, ptr %3, align 8
  %17 = getelementptr inbounds %struct.Type_, ptr %16, i32 0, i32 2
  %18 = load ptr, ptr %17, align 8
  call void @scratch_buffer_append(ptr noundef %18)
  br label %150

19:                                               ; preds = %1, %1
  call void @scratch_buffer_append(ptr noundef @.str.19)
  %20 = load ptr, ptr %3, align 8
  %21 = getelementptr inbounds %struct.Type_, ptr %20, i32 0, i32 7
  %22 = load ptr, ptr %21, align 8
  call void @type_mangle_introspect_name_to_buffer(ptr noundef %22)
  br label %150

23:                                               ; preds = %1
  call void @scratch_buffer_append(ptr noundef @.str.20)
  %24 = load ptr, ptr %3, align 8
  %25 = getelementptr inbounds %struct.Type_, ptr %24, i32 0, i32 7
  %26 = getelementptr inbounds %struct.TypeArray, ptr %25, i32 0, i32 0
  %27 = load ptr, ptr %26, align 8
  call void @type_mangle_introspect_name_to_buffer(ptr noundef %27)
  br label %150

28:                                               ; preds = %1
  call void @scratch_buffer_append(ptr noundef @.str.21)
  %29 = load ptr, ptr %3, align 8
  %30 = getelementptr inbounds %struct.Type_, ptr %29, i32 0, i32 7
  %31 = getelementptr inbounds %struct.TypeArray, ptr %30, i32 0, i32 0
  %32 = load ptr, ptr %31, align 8
  call void @type_mangle_introspect_name_to_buffer(ptr noundef %32)
  br label %150

33:                                               ; preds = %1
  call void @scratch_buffer_append(ptr noundef @.str.22)
  %34 = load ptr, ptr %3, align 8
  %35 = getelementptr inbounds %struct.Type_, ptr %34, i32 0, i32 7
  %36 = load ptr, ptr %35, align 8
  call void @type_mangle_introspect_name_to_buffer(ptr noundef %36)
  br label %150

37:                                               ; preds = %1
  call void @scratch_buffer_append_char(i8 noundef signext 118)
  %38 = load ptr, ptr %3, align 8
  %39 = getelementptr inbounds %struct.Type_, ptr %38, i32 0, i32 7
  %40 = getelementptr inbounds %struct.TypeArray, ptr %39, i32 0, i32 1
  %41 = load i32, ptr %40, align 8
  %42 = zext i32 %41 to i64
  call void @scratch_buffer_append_unsigned_int(i64 noundef %42)
  call void @scratch_buffer_append_char(i8 noundef signext 36)
  %43 = load ptr, ptr %3, align 8
  %44 = getelementptr inbounds %struct.Type_, ptr %43, i32 0, i32 7
  %45 = getelementptr inbounds %struct.TypeArray, ptr %44, i32 0, i32 0
  %46 = load ptr, ptr %45, align 8
  call void @type_mangle_introspect_name_to_buffer(ptr noundef %46)
  br label %150

47:                                               ; preds = %1
  call void @scratch_buffer_append_char(i8 noundef signext 97)
  %48 = load ptr, ptr %3, align 8
  %49 = getelementptr inbounds %struct.Type_, ptr %48, i32 0, i32 7
  %50 = getelementptr inbounds %struct.TypeArray, ptr %49, i32 0, i32 1
  %51 = load i32, ptr %50, align 8
  %52 = zext i32 %51 to i64
  call void @scratch_buffer_append_unsigned_int(i64 noundef %52)
  call void @scratch_buffer_append_char(i8 noundef signext 36)
  %53 = load ptr, ptr %3, align 8
  %54 = getelementptr inbounds %struct.Type_, ptr %53, i32 0, i32 7
  %55 = getelementptr inbounds %struct.TypeArray, ptr %54, i32 0, i32 0
  %56 = load ptr, ptr %55, align 8
  call void @type_mangle_introspect_name_to_buffer(ptr noundef %56)
  br label %150

57:                                               ; preds = %1
  %58 = load ptr, ptr %3, align 8
  %59 = getelementptr inbounds %struct.Type_, ptr %58, i32 0, i32 7
  %60 = getelementptr inbounds %struct.TypeFunction, ptr %59, i32 0, i32 2
  %61 = load ptr, ptr %60, align 8
  %62 = getelementptr inbounds %struct.FunctionPrototype_, ptr %61, i32 0, i32 12
  %63 = load ptr, ptr %62, align 8
  store ptr %63, ptr %3, align 8
  %64 = load ptr, ptr %3, align 8
  %65 = getelementptr inbounds %struct.Type_, ptr %64, i32 0, i32 7
  %66 = getelementptr inbounds %struct.TypeFunction, ptr %65, i32 0, i32 0
  %67 = load ptr, ptr %66, align 8
  %68 = icmp ne ptr %67, null
  br i1 %68, label %69, label %106

69:                                               ; preds = %57
  %70 = load ptr, ptr %3, align 8
  %71 = getelementptr inbounds %struct.Type_, ptr %70, i32 0, i32 7
  %72 = getelementptr inbounds %struct.TypeFunction, ptr %71, i32 0, i32 0
  %73 = load ptr, ptr %72, align 8
  store ptr %73, ptr %2, align 8
  %74 = load ptr, ptr %2, align 8
  %75 = getelementptr inbounds %struct.Decl_, ptr %74, i32 0, i32 8
  %76 = load ptr, ptr %75, align 8
  %77 = icmp ne ptr %76, null
  br i1 %77, label %78, label %83

78:                                               ; preds = %69
  %79 = load ptr, ptr %2, align 8
  %80 = getelementptr inbounds %struct.Decl_, ptr %79, i32 0, i32 8
  %81 = load ptr, ptr %80, align 8
  %82 = load ptr, ptr %81, align 8
  br label %85

83:                                               ; preds = %69
  %84 = load ptr, ptr getelementptr inbounds (%struct.GlobalContext, ptr @global_context, i32 0, i32 1), align 8
  br label %85

85:                                               ; preds = %83, %78
  %86 = phi ptr [ %82, %78 ], [ %84, %83 ]
  store ptr %86, ptr %4, align 8
  %87 = load ptr, ptr %4, align 8
  %88 = getelementptr inbounds %struct.Module_, ptr %87, i32 0, i32 1
  %89 = load ptr, ptr %88, align 8
  %90 = icmp ne ptr %89, null
  br i1 %90, label %91, label %95

91:                                               ; preds = %85
  %92 = load ptr, ptr %4, align 8
  %93 = getelementptr inbounds %struct.Module_, ptr %92, i32 0, i32 1
  %94 = load ptr, ptr %93, align 8
  br label %101

95:                                               ; preds = %85
  %96 = load ptr, ptr %4, align 8
  %97 = getelementptr inbounds %struct.Module_, ptr %96, i32 0, i32 0
  %98 = load ptr, ptr %97, align 8
  %99 = getelementptr inbounds %struct.Path_, ptr %98, i32 0, i32 1
  %100 = load ptr, ptr %99, align 8
  br label %101

101:                                              ; preds = %95, %91
  %102 = phi ptr [ %94, %91 ], [ %100, %95 ]
  call void @scratch_buffer_append(ptr noundef %102)
  call void @scratch_buffer_append_char(i8 noundef signext 36)
  %103 = load ptr, ptr %3, align 8
  %104 = getelementptr inbounds %struct.Type_, ptr %103, i32 0, i32 2
  %105 = load ptr, ptr %104, align 8
  call void @scratch_buffer_append(ptr noundef %105)
  br label %137

106:                                              ; preds = %57
  %107 = load ptr, ptr %3, align 8
  %108 = getelementptr inbounds %struct.Type_, ptr %107, i32 0, i32 2
  %109 = load ptr, ptr %108, align 8
  %110 = call i64 @strlen(ptr noundef %109) #8
  store i64 %110, ptr %5, align 8
  store i64 0, ptr %6, align 8
  br label %111

111:                                              ; preds = %133, %106
  %112 = load i64, ptr %6, align 8
  %113 = load i64, ptr %5, align 8
  %114 = icmp ult i64 %112, %113
  br i1 %114, label %115, label %136

115:                                              ; preds = %111
  %116 = load ptr, ptr %3, align 8
  %117 = getelementptr inbounds %struct.Type_, ptr %116, i32 0, i32 2
  %118 = load ptr, ptr %117, align 8
  %119 = load i64, ptr %6, align 8
  %120 = getelementptr inbounds i8, ptr %118, i64 %119
  %121 = load i8, ptr %120, align 1
  store i8 %121, ptr %7, align 1
  %122 = load i8, ptr %7, align 1
  %123 = call zeroext i1 @char_is_alphanum_(i8 noundef signext %122)
  br i1 %123, label %124, label %126

124:                                              ; preds = %115
  %125 = load i8, ptr %7, align 1
  call void @scratch_buffer_append_char(i8 noundef signext %125)
  br label %133

126:                                              ; preds = %115
  %127 = load i8, ptr %7, align 1
  %128 = sext i8 %127 to i32
  %129 = icmp eq i32 %128, 36
  br i1 %129, label %130, label %131

130:                                              ; preds = %126
  call void @scratch_buffer_append(ptr noundef @.str.23)
  br label %133

131:                                              ; preds = %126
  call void @scratch_buffer_append_char(i8 noundef signext 36)
  br label %132

132:                                              ; preds = %131
  br label %133

133:                                              ; preds = %132, %130, %124
  %134 = load i64, ptr %6, align 8
  %135 = add i64 %134, 1
  store i64 %135, ptr %6, align 8
  br label %111, !llvm.loop !10

136:                                              ; preds = %111
  br label %137

137:                                              ; preds = %136, %101
  br label %150

138:                                              ; preds = %1, %1, %1, %1, %1, %1, %1
  %139 = load ptr, ptr %3, align 8
  %140 = getelementptr inbounds %struct.Type_, ptr %139, i32 0, i32 7
  %141 = load ptr, ptr %140, align 8
  %142 = getelementptr inbounds %struct.Decl_, ptr %141, i32 0, i32 1
  %143 = load ptr, ptr %142, align 8
  call void @scratch_buffer_append(ptr noundef %143)
  br label %150

144:                                              ; preds = %1
  %145 = load ptr, ptr %3, align 8
  %146 = getelementptr inbounds %struct.Type_, ptr %145, i32 0, i32 1
  %147 = load ptr, ptr %146, align 8
  call void @type_mangle_introspect_name_to_buffer(ptr noundef %147)
  br label %150

148:                                              ; preds = %1
  br label %149

149:                                              ; preds = %148
  call void (ptr, ...) @error_exit(ptr noundef @.str, ptr noundef @.str.17, ptr noundef @__func__.type_mangle_introspect_name_to_buffer, ptr noundef @.str.2, i32 noundef 629) #7
  unreachable

150:                                              ; preds = %144, %138, %137, %47, %37, %33, %28, %23, %19, %15, %14
  ret void
}